; Function Attrs: nounwind uwtable
define internal void @py_blake2_dealloc(ptr noundef %0) #2 {
  %2 = getelementptr i8, ptr %0, i64 8
  %.val = load ptr, ptr %2, align 8, !tbaa !45
  tail call void @PyObject_GC_UnTrack(ptr noundef %0) #9
  %3 = getelementptr inbounds nuw i8, ptr %0, i64 24
  %4 = load i32, ptr %3, align 8, !tbaa !42
  %5 = getelementptr inbounds nuw i8, ptr %0, i64 16
  %6 = load ptr, ptr %5, align 8, !tbaa !31
  %.not19.i = icmp eq ptr %6, null
  switch i32 %4, label %15 [
    i32 3, label %7
    i32 2, label %9
    i32 1, label %11
    i32 0, label %13
  ]

7:                                                ; preds = %1
  br i1 %.not19.i, label %py_blake2_clear.exit, label %8

8:                                                ; preds = %7
  tail call void @python_hashlib_Hacl_Hash_Blake2b_Simd256_free(ptr noundef nonnull %6) #9
  br label %.sink.split.i

9:                                                ; preds = %1
  br i1 %.not19.i, label %py_blake2_clear.exit, label %10

10:                                               ; preds = %9
  tail call void @python_hashlib_Hacl_Hash_Blake2s_Simd128_free(ptr noundef nonnull %6) #9
  br label %.sink.split.i

11:                                               ; preds = %1
  br i1 %.not19.i, label %py_blake2_clear.exit, label %12

12:                                               ; preds = %11
  tail call void @python_hashlib_Hacl_Hash_Blake2b_free(ptr noundef nonnull %6) #9
  br label %.sink.split.i

13:                                               ; preds = %1
  br i1 %.not19.i, label %py_blake2_clear.exit, label %14

14:                                               ; preds = %13
  tail call void @python_hashlib_Hacl_Hash_Blake2s_free(ptr noundef nonnull %6) #9
  br label %.sink.split.i

15:                                               ; preds = %1
  unreachable

.sink.split.i:                                    ; preds = %14, %12, %10, %8
  store ptr null, ptr %5, align 8, !tbaa !31
  br label %py_blake2_clear.exit

py_blake2_clear.exit:                             ; preds = %7, %9, %11, %13, %.sink.split.i
  %16 = getelementptr inbounds nuw i8, ptr %.val, i64 320
  %17 = load ptr, ptr %16, align 8, !tbaa !46
  tail call void %17(ptr noundef nonnull %0) #9
  %18 = load i32, ptr %.val, align 8, !tbaa !31
  %.not.i = icmp sgt i32 %18, -1
  br i1 %.not.i, label %19, label %Py_DECREF.exit

19:                                               ; preds = %py_blake2_clear.exit
  %20 = add nsw i32 %18, -1
  store i32 %20, ptr %.val, align 8, !tbaa !31
  %21 = icmp eq i32 %20, 0
  br i1 %21, label %22, label %Py_DECREF.exit

22:                                               ; preds = %19
  tail call void @_Py_Dealloc(ptr noundef nonnull %.val) #9
  br label %Py_DECREF.exit

Py_DECREF.exit:                                   ; preds = %py_blake2_clear.exit, %19, %22
  ret void
}